; Function Attrs: mustprogress nounwind uwtable
define dso_local noundef zeroext i1 @_ZN5clang4ento21tagged_union_modeling21isCopyConstructorCallERKNS0_9CallEventE(ptr noundef nonnull align 8 dereferenceable(72) %0) local_unnamed_addr #0 {
  %2 = alloca i32, align 4
  %3 = load ptr, ptr %0, align 8
  %4 = getelementptr inbounds i8, ptr %3, i64 32
  %5 = load ptr, ptr %4, align 8
  %6 = tail call noundef i32 %5(ptr noundef nonnull align 8 dereferenceable(72) %0) #15
  %.not.i = icmp eq i32 %6, 5
  br i1 %.not.i, label %_ZN5clang4ento21tagged_union_modeling32getConstructorDeclarationForCallERKNS0_9CallEventE.exit, label %_ZN5clang4ento21tagged_union_modeling32getConstructorDeclarationForCallERKNS0_9CallEventE.exit.thread

_ZN5clang4ento21tagged_union_modeling32getConstructorDeclarationForCallERKNS0_9CallEventE.exit: ; preds = %1
  %7 = load ptr, ptr %0, align 8
  %8 = getelementptr inbounds i8, ptr %7, i64 48
  %9 = load ptr, ptr %8, align 8
  %10 = tail call noundef ptr %9(ptr noundef nonnull align 8 dereferenceable(72) %0) #15
  %.not = icmp eq ptr %10, null
  br i1 %.not, label %_ZN5clang4ento21tagged_union_modeling32getConstructorDeclarationForCallERKNS0_9CallEventE.exit.thread, label %11

11:                                               ; preds = %_ZN5clang4ento21tagged_union_modeling32getConstructorDeclarationForCallERKNS0_9CallEventE.exit
  call void @llvm.lifetime.start.p0(i64 4, ptr nonnull %2)
  store i32 0, ptr %2, align 4
  %12 = call noundef zeroext i1 @_ZNK5clang18CXXConstructorDecl17isCopyConstructorERj(ptr noundef nonnull align 8 dereferenceable(176) %10, ptr noundef nonnull align 4 dereferenceable(4) %2) #15
  call void @llvm.lifetime.end.p0(i64 4, ptr nonnull %2)
  br label %_ZN5clang4ento21tagged_union_modeling32getConstructorDeclarationForCallERKNS0_9CallEventE.exit.thread

_ZN5clang4ento21tagged_union_modeling32getConstructorDeclarationForCallERKNS0_9CallEventE.exit.thread: ; preds = %1, %_ZN5clang4ento21tagged_union_modeling32getConstructorDeclarationForCallERKNS0_9CallEventE.exit, %11
  %.0 = phi i1 [ %12, %11 ], [ false, %_ZN5clang4ento21tagged_union_modeling32getConstructorDeclarationForCallERKNS0_9CallEventE.exit ], [ false, %1 ]
  ret i1 %.0
}